; ModuleID = '28/77.c'
source_filename = "28/77.c"
target datalayout = "e-m:e-p270:32:32-p271:32:32-p272:64:64-i64:64-f80:128-n8:16:32:64-S128"
target triple = "x86_64-pc-linux-gnu"

@.str = private unnamed_addr constant [3 x i8] c"%c\00", align 1
@.str.1 = private unnamed_addr constant [4 x i8] c"%d,\00", align 1
@.str.2 = private unnamed_addr constant [3 x i8] c"%d\00", align 1

; Function Attrs: noinline nounwind uwtable
define dso_local void @main() #0 {
  %1 = alloca i8, align 1
  %2 = alloca i32, align 4
  %3 = alloca i32, align 4
  %4 = alloca [301 x i32], align 16
  %5 = alloca i32, align 4
  store i32 0, i32* %2, align 4
  store i32 0, i32* %3, align 4
  store i32 0, i32* %5, align 4
  br label %6

6:                                                ; preds = %13, %0
  %7 = load i32, i32* %5, align 4
  %8 = icmp slt i32 %7, 301
  br i1 %8, label %9, label %16

9:                                                ; preds = %6
  %10 = load i32, i32* %5, align 4
  %11 = sext i32 %10 to i64
  %12 = getelementptr inbounds [301 x i32], [301 x i32]* %4, i64 0, i64 %11
  store i32 0, i32* %12, align 4
  br label %13

13:                                               ; preds = %9
  %14 = load i32, i32* %5, align 4
  %15 = add nsw i32 %14, 1
  store i32 %15, i32* %5, align 4
  br label %6

16:                                               ; preds = %6
  br label %17

17:                                               ; preds = %54, %16
  %18 = call i32 (i8*, ...) @__isoc99_scanf(i8* getelementptr inbounds ([3 x i8], [3 x i8]* @.str, i64 0, i64 0), i8* %1)
  %19 = load i8, i8* %1, align 1
  %20 = sext i8 %19 to i32
  %21 = icmp ne i32 %20, 32
  br i1 %21, label %22, label %41

22:                                               ; preds = %17
  %23 = load i32, i32* %2, align 4
  %24 = icmp eq i32 %23, 0
  br i1 %24, label %25, label %31

25:                                               ; preds = %22
  store i32 1, i32* %2, align 4
  %26 = load i32, i32* %3, align 4
  %27 = sext i32 %26 to i64
  %28 = getelementptr inbounds [301 x i32], [301 x i32]* %4, i64 0, i64 %27
  %29 = load i32, i32* %28, align 4
  %30 = add nsw i32 %29, 1
  store i32 %30, i32* %28, align 4
  br label %31

31:                                               ; preds = %25, %22
  %32 = load i32, i32* %2, align 4
  %33 = icmp eq i32 %32, 1
  br i1 %33, label %34, label %40

34:                                               ; preds = %31
  %35 = load i32, i32* %3, align 4
  %36 = sext i32 %35 to i64
  %37 = getelementptr inbounds [301 x i32], [301 x i32]* %4, i64 0, i64 %36
  %38 = load i32, i32* %37, align 4
  %39 = add nsw i32 %38, 1
  store i32 %39, i32* %37, align 4
  br label %40

40:                                               ; preds = %34, %31
  br label %53

41:                                               ; preds = %17
  %42 = load i8, i8* %1, align 1
  %43 = sext i8 %42 to i32
  %44 = icmp eq i32 %43, 32
  br i1 %44, label %45, label %52

45:                                               ; preds = %41
  %46 = load i32, i32* %2, align 4
  %47 = icmp eq i32 %46, 1
  br i1 %47, label %48, label %51

48:                                               ; preds = %45
  store i32 0, i32* %2, align 4
  %49 = load i32, i32* %3, align 4
  %50 = add nsw i32 %49, 1
  store i32 %50, i32* %3, align 4
  br label %51

51:                                               ; preds = %48, %45
  br label %52

52:                                               ; preds = %51, %41
  br label %53

53:                                               ; preds = %52, %40
  br label %54

54:                                               ; preds = %53
  %55 = load i8, i8* %1, align 1
  %56 = sext i8 %55 to i32
  %57 = icmp ne i32 %56, 10
  br i1 %57, label %17, label %58

58:                                               ; preds = %54
  store i32 0, i32* %5, align 4
  br label %59

59:                                               ; preds = %70, %58
  %60 = load i32, i32* %5, align 4
  %61 = load i32, i32* %3, align 4
  %62 = icmp slt i32 %60, %61
  br i1 %62, label %63, label %73

63:                                               ; preds = %59
  %64 = load i32, i32* %5, align 4
  %65 = sext i32 %64 to i64
  %66 = getelementptr inbounds [301 x i32], [301 x i32]* %4, i64 0, i64 %65
  %67 = load i32, i32* %66, align 4
  %68 = sub nsw i32 %67, 1
  %69 = call i32 (i8*, ...) @printf(i8* getelementptr inbounds ([4 x i8], [4 x i8]* @.str.1, i64 0, i64 0), i32 %68)
  br label %70

70:                                               ; preds = %63
  %71 = load i32, i32* %5, align 4
  %72 = add nsw i32 %71, 1
  store i32 %72, i32* %5, align 4
  br label %59

73:                                               ; preds = %59
  %74 = load i32, i32* %3, align 4
  %75 = sext i32 %74 to i64
  %76 = getelementptr inbounds [301 x i32], [301 x i32]* %4, i64 0, i64 %75
  %77 = load i32, i32* %76, align 4
  %78 = sub nsw i32 %77, 2
  %79 = call i32 (i8*, ...) @printf(i8* getelementptr inbounds ([3 x i8], [3 x i8]* @.str.2, i64 0, i64 0), i32 %78)
  ret void
}

declare dso_local i32 @__isoc99_scanf(i8*, ...) #1

declare dso_local i32 @printf(i8*, ...) #1


!llvm.module.flags = !{!0}
!llvm.ident = !{!1}

!0 = !{i32 1, !"wchar_size", i32 4}
!1 = !{!"clang version 10.0.0-4ubuntu1 "}
